; ModuleID = '21/1108.c'
source_filename = "21/1108.c"
target datalayout = "e-m:e-p270:32:32-p271:32:32-p272:64:64-i64:64-f80:128-n8:16:32:64-S128"
target triple = "x86_64-pc-linux-gnu"

@.str = private unnamed_addr constant [3 x i8] c"%d\00", align 1
@.str.1 = private unnamed_addr constant [4 x i8] c",%d\00", align 1

; Function Attrs: noinline nounwind uwtable
define dso_local i32 @main() #0 {
  %1 = alloca i32, align 4
  %2 = alloca [300 x i32], align 16
  %3 = alloca i32, align 4
  %4 = alloca i32, align 4
  %5 = alloca i32, align 4
  %6 = alloca i32, align 4
  %7 = alloca i32, align 4
  %8 = alloca [300 x i32], align 16
  %9 = alloca double, align 8
  %10 = alloca double, align 8
  %11 = alloca double, align 8
  %12 = alloca double, align 8
  store i32 0, i32* %1, align 4
  store double 0.000000e+00, double* %12, align 8
  %13 = call i32 (i8*, ...) @__isoc99_scanf(i8* getelementptr inbounds ([3 x i8], [3 x i8]* @.str, i64 0, i64 0), i32* %6)
  store i32 0, i32* %3, align 4
  br label %14

14:                                               ; preds = %31, %0
  %15 = load i32, i32* %3, align 4
  %16 = load i32, i32* %6, align 4
  %17 = sub nsw i32 %16, 1
  %18 = icmp sle i32 %15, %17
  br i1 %18, label %19, label %34

19:                                               ; preds = %14
  %20 = load i32, i32* %3, align 4
  %21 = sext i32 %20 to i64
  %22 = getelementptr inbounds [300 x i32], [300 x i32]* %2, i64 0, i64 %21
  %23 = call i32 (i8*, ...) @__isoc99_scanf(i8* getelementptr inbounds ([3 x i8], [3 x i8]* @.str, i64 0, i64 0), i32* %22)
  %24 = load double, double* %12, align 8
  %25 = load i32, i32* %3, align 4
  %26 = sext i32 %25 to i64
  %27 = getelementptr inbounds [300 x i32], [300 x i32]* %2, i64 0, i64 %26
  %28 = load i32, i32* %27, align 4
  %29 = sitofp i32 %28 to double
  %30 = fadd double %24, %29
  store double %30, double* %12, align 8
  br label %31

31:                                               ; preds = %19
  %32 = load i32, i32* %3, align 4
  %33 = add nsw i32 %32, 1
  store i32 %33, i32* %3, align 4
  br label %14

34:                                               ; preds = %14
  %35 = load double, double* %12, align 8
  %36 = load i32, i32* %6, align 4
  %37 = sitofp i32 %36 to double
  %38 = fdiv double %35, %37
  store double %38, double* %9, align 8
  %39 = getelementptr inbounds [300 x i32], [300 x i32]* %2, i64 0, i64 0
  %40 = load i32, i32* %39, align 16
  %41 = sitofp i32 %40 to double
  %42 = load double, double* %9, align 8
  %43 = fsub double %41, %42
  %44 = call double @llvm.fabs.f64(double %43)
  store double %44, double* %11, align 8
  store i32 0, i32* %3, align 4
  br label %45

45:                                               ; preds = %65, %34
  %46 = load i32, i32* %3, align 4
  %47 = load i32, i32* %6, align 4
  %48 = sub nsw i32 %47, 1
  %49 = icmp sle i32 %46, %48
  br i1 %49, label %50, label %68

50:                                               ; preds = %45
  %51 = load i32, i32* %3, align 4
  %52 = sext i32 %51 to i64
  %53 = getelementptr inbounds [300 x i32], [300 x i32]* %2, i64 0, i64 %52
  %54 = load i32, i32* %53, align 4
  %55 = sitofp i32 %54 to double
  %56 = load double, double* %9, align 8
  %57 = fsub double %55, %56
  %58 = call double @llvm.fabs.f64(double %57)
  store double %58, double* %10, align 8
  %59 = load double, double* %10, align 8
  %60 = load double, double* %11, align 8
  %61 = fcmp ogt double %59, %60
  br i1 %61, label %62, label %64

62:                                               ; preds = %50
  %63 = load double, double* %10, align 8
  store double %63, double* %11, align 8
  br label %64

64:                                               ; preds = %62, %50
  br label %65

65:                                               ; preds = %64
  %66 = load i32, i32* %3, align 4
  %67 = add nsw i32 %66, 1
  store i32 %67, i32* %3, align 4
  br label %45

68:                                               ; preds = %45
  store i32 0, i32* %3, align 4
  store i32 0, i32* %4, align 4
  br label %69

69:                                               ; preds = %98, %68
  %70 = load i32, i32* %3, align 4
  %71 = load i32, i32* %6, align 4
  %72 = sub nsw i32 %71, 1
  %73 = icmp sle i32 %70, %72
  br i1 %73, label %74, label %101

74:                                               ; preds = %69
  %75 = load i32, i32* %3, align 4
  %76 = sext i32 %75 to i64
  %77 = getelementptr inbounds [300 x i32], [300 x i32]* %2, i64 0, i64 %76
  %78 = load i32, i32* %77, align 4
  %79 = sitofp i32 %78 to double
  %80 = load double, double* %9, align 8
  %81 = fsub double %79, %80
  %82 = call double @llvm.fabs.f64(double %81)
  store double %82, double* %10, align 8
  %83 = load double, double* %11, align 8
  %84 = load double, double* %10, align 8
  %85 = fsub double %83, %84
  %86 = fcmp olt double %85, 0x3EB0C6F7A0B5ED8D
  br i1 %86, label %87, label %97

87:                                               ; preds = %74
  %88 = load i32, i32* %3, align 4
  %89 = sext i32 %88 to i64
  %90 = getelementptr inbounds [300 x i32], [300 x i32]* %2, i64 0, i64 %89
  %91 = load i32, i32* %90, align 4
  %92 = load i32, i32* %4, align 4
  %93 = sext i32 %92 to i64
  %94 = getelementptr inbounds [300 x i32], [300 x i32]* %8, i64 0, i64 %93
  store i32 %91, i32* %94, align 4
  %95 = load i32, i32* %4, align 4
  %96 = add nsw i32 %95, 1
  store i32 %96, i32* %4, align 4
  br label %97

97:                                               ; preds = %87, %74
  br label %98

98:                                               ; preds = %97
  %99 = load i32, i32* %3, align 4
  %100 = add nsw i32 %99, 1
  store i32 %100, i32* %3, align 4
  br label %69

101:                                              ; preds = %69
  store i32 0, i32* %5, align 4
  br label %102

102:                                              ; preds = %148, %101
  %103 = load i32, i32* %5, align 4
  %104 = load i32, i32* %4, align 4
  %105 = icmp slt i32 %103, %104
  br i1 %105, label %106, label %151

106:                                              ; preds = %102
  store i32 0, i32* %3, align 4
  br label %107

107:                                              ; preds = %144, %106
  %108 = load i32, i32* %3, align 4
  %109 = load i32, i32* %4, align 4
  %110 = load i32, i32* %5, align 4
  %111 = sub nsw i32 %109, %110
  %112 = sub nsw i32 %111, 1
  %113 = icmp slt i32 %108, %112
  br i1 %113, label %114, label %147

114:                                              ; preds = %107
  %115 = load i32, i32* %3, align 4
  %116 = sext i32 %115 to i64
  %117 = getelementptr inbounds [300 x i32], [300 x i32]* %8, i64 0, i64 %116
  %118 = load i32, i32* %117, align 4
  %119 = load i32, i32* %3, align 4
  %120 = add nsw i32 %119, 1
  %121 = sext i32 %120 to i64
  %122 = getelementptr inbounds [300 x i32], [300 x i32]* %8, i64 0, i64 %121
  %123 = load i32, i32* %122, align 4
  %124 = icmp sgt i32 %118, %123
  br i1 %124, label %125, label %143

125:                                              ; preds = %114
  %126 = load i32, i32* %3, align 4
  %127 = sext i32 %126 to i64
  %128 = getelementptr inbounds [300 x i32], [300 x i32]* %8, i64 0, i64 %127
  %129 = load i32, i32* %128, align 4
  store i32 %129, i32* %7, align 4
  %130 = load i32, i32* %3, align 4
  %131 = add nsw i32 %130, 1
  %132 = sext i32 %131 to i64
  %133 = getelementptr inbounds [300 x i32], [300 x i32]* %8, i64 0, i64 %132
  %134 = load i32, i32* %133, align 4
  %135 = load i32, i32* %3, align 4
  %136 = sext i32 %135 to i64
  %137 = getelementptr inbounds [300 x i32], [300 x i32]* %8, i64 0, i64 %136
  store i32 %134, i32* %137, align 4
  %138 = load i32, i32* %7, align 4
  %139 = load i32, i32* %3, align 4
  %140 = add nsw i32 %139, 1
  %141 = sext i32 %140 to i64
  %142 = getelementptr inbounds [300 x i32], [300 x i32]* %8, i64 0, i64 %141
  store i32 %138, i32* %142, align 4
  br label %143

143:                                              ; preds = %125, %114
  br label %144

144:                                              ; preds = %143
  %145 = load i32, i32* %3, align 4
  %146 = add nsw i32 %145, 1
  store i32 %146, i32* %3, align 4
  br label %107

147:                                              ; preds = %107
  br label %148

148:                                              ; preds = %147
  %149 = load i32, i32* %5, align 4
  %150 = add nsw i32 %149, 1
  store i32 %150, i32* %5, align 4
  br label %102

151:                                              ; preds = %102
  %152 = getelementptr inbounds [300 x i32], [300 x i32]* %8, i64 0, i64 0
  %153 = load i32, i32* %152, align 16
  %154 = call i32 (i8*, ...) @printf(i8* getelementptr inbounds ([3 x i8], [3 x i8]* @.str, i64 0, i64 0), i32 %153)
  store i32 1, i32* %3, align 4
  br label %155

155:                                              ; preds = %165, %151
  %156 = load i32, i32* %3, align 4
  %157 = load i32, i32* %4, align 4
  %158 = icmp slt i32 %156, %157
  br i1 %158, label %159, label %168

159:                                              ; preds = %155
  %160 = load i32, i32* %3, align 4
  %161 = sext i32 %160 to i64
  %162 = getelementptr inbounds [300 x i32], [300 x i32]* %8, i64 0, i64 %161
  %163 = load i32, i32* %162, align 4
  %164 = call i32 (i8*, ...) @printf(i8* getelementptr inbounds ([4 x i8], [4 x i8]* @.str.1, i64 0, i64 0), i32 %163)
  br label %165

165:                                              ; preds = %159
  %166 = load i32, i32* %3, align 4
  %167 = add nsw i32 %166, 1
  store i32 %167, i32* %3, align 4
  br label %155

168:                                              ; preds = %155
  ret i32 0
}

declare dso_local i32 @__isoc99_scanf(i8*, ...) #1

; Function Attrs: nounwind readnone speculatable willreturn
declare double @llvm.fabs.f64(double) #2

declare dso_local i32 @printf(i8*, ...) #1


!llvm.module.flags = !{!0}
!llvm.ident = !{!1}

!0 = !{i32 1, !"wchar_size", i32 4}
!1 = !{!"clang version 10.0.0-4ubuntu1 "}
